(dp0
S'video_durations'
p1
(lp2
I103000
aI107000
aI101000
aI32000
asS'event_recording_durations'
p3
(lp4
F20000.0
aF20000.0
aF20000.0
aF20000.0
asS'start_timestamps'
p5
(lp6
I1404273610710
aI1404273608920
aI1404273614185
aI1404273679018
asS'stop_timestamps'
p7
(lp8
I1404273713710
aI1404273715920
aI1404273715185
aI1404273711018
asS'stop_offsets'
p9
(lp10
F-8996290.0
aF-8994080.0
aF-8994815.0
aF-8998982.0
asS'start_offsets'
p11
(lp12
F9079290.0
aF9081080.0
aF9075815.0
aF9010982.0
as.