(dp0
S'video_durations'
p1
(lp2
I171000
aF168000.0
aI170000
aI172000
aI171000
aI171000
aI170000
aI170000
aF171000.0
aF158000.0
asS'event_recording_durations'
p3
(lp4
F78000.0
aF78000.0
aF78000.0
aF78000.0
aF78000.0
aF78000.0
aF78000.0
aF78000.0
aF78000.0
aF78000.0
asS'start_timestamps'
p5
(lp6
I1480572869112
aF1480572871450.0
aI1480572869748
aI1480572868377
aI1480572868855
aI1480572869580
aI1480572870133
aI1480572869611
aF1480572867905.0
aF1480572880672.0
asS'stop_timestamps'
p7
(lp8
I1480573040112
aI1480573039450
aI1480573039748
aI1480573040377
aI1480573039855
aI1480573040580
aI1480573040133
aI1480573039611
aI1480573038905
aI1480573038672
asS'stop_offsets'
p9
(lp10
F-1888.0
aF-2550.0
aF-2252.0
aF-1623.0
aF-2145.0
aF-1420.0
aF-1867.0
aF-2389.0
aF-3095.0
aF-3328.0
asS'start_offsets'
p11
(lp12
F94888.0
aF92550.0
aF94252.0
aF95623.0
aF95145.0
aF94420.0
aF93867.0
aF94389.0
aF96095.0
aF83328.0
as.