(dp0
S'video_durations'
p1
(lp2
I68000
aI74000
aI79000
aI73000
aI80000
aI70000
aI72000
aI70000
aI73000
aI73000
asS'event_recording_durations'
p3
(lp4
F26000.0
aF26000.0
aF26000.0
aF26000.0
aF26000.0
aF26000.0
aF26000.0
aF26000.0
aF26000.0
aF26000.0
asS'start_timestamps'
p5
(lp6
I1444301703799
aI1444301697512
aI1444301691445
aI1444301698826
aI1444301692239
aI1444301699625
aI1444301698950
aI1444301705833
aI1444301699339
aI1444301697435
asS'stop_timestamps'
p7
(lp8
I1444301771799
aI1444301771512
aI1444301770445
aI1444301771826
aI1444301772239
aI1444301769625
aI1444301770950
aI1444301775833
aI1444301772339
aI1444301770435
asS'stop_offsets'
p9
(lp10
F2799.0
aF2512.0
aF1445.0
aF2826.0
aF3239.0
aF625.0
aF1950.0
aF6833.0
aF3339.0
aF1435.0
asS'start_offsets'
p11
(lp12
F39201.0
aF45488.0
aF51555.0
aF44174.0
aF50761.0
aF43375.0
aF44050.0
aF37167.0
aF43661.0
aF45565.0
as.