(dp0
S'video_durations'
p1
(lp2
I103000
aI107000
aI101000
aI59000
asS'event_recording_durations'
p3
(lp4
F38000.0
aF38000.0
aF38000.0
aF38000.0
asS'start_timestamps'
p5
(lp6
I1404273610710
aI1404273608920
aI1404273614185
aI1404273612703
asS'stop_timestamps'
p7
(lp8
I1404273713710
aI1404273715920
aI1404273715185
aI1404273671703
asS'stop_offsets'
p9
(lp10
F-8956290.0
aF-8954080.0
aF-8954815.0
aF-8998297.0
asS'start_offsets'
p11
(lp12
F9021290.0
aF9023080.0
aF9017815.0
aF9019297.0
as.