(dp0
S'video_durations'
p1
(lp2
I173000
aF173000.0
aI169000
aF146000.0
aI170000
aI166000
aI165000
aI175000
aI162000
aI167000
aF167000.0
asS'event_recording_durations'
p3
(lp4
F38000.0
aF38000.0
aF38000.0
aF38000.0
aF38000.0
aF38000.0
aF38000.0
aF38000.0
aF38000.0
aF38000.0
aF38000.0
asS'start_timestamps'
p5
(lp6
I1480572517341
aF1480572516440.0
aI1480572518734
aF1480572540626.0
aI1480572519805
aI1480572524188
aI1480572524208
aI1480572521540
aI1480572527573
aI1480572524796
aF1480572516453.0
asS'stop_timestamps'
p7
(lp8
I1480572690341
aI1480572689440
aI1480572687734
aI1480572686626
aI1480572689805
aI1480572690188
aI1480572689208
aI1480572696540
aI1480572689573
aI1480572691796
aI1480572683453
asS'stop_offsets'
p9
(lp10
F48341.0
aF47440.0
aF45734.0
aF44626.0
aF47805.0
aF48188.0
aF47208.0
aF54540.0
aF47573.0
aF49796.0
aF41453.0
asS'start_offsets'
p11
(lp12
F86659.0
aF87560.0
aF85266.0
aF63374.0
aF84195.0
aF79812.0
aF79792.0
aF82460.0
aF76427.0
aF79204.0
aF87547.0
as.