(dp0
S'video_durations'
p1
(lp2
I199000
aI206000
aI260000
aI195000
aI201000
aI195000
aI200000
asS'event_recording_durations'
p3
(lp4
F21000.0
aF21000.0
aF21000.0
aF21000.0
aF21000.0
aF21000.0
aF21000.0
asS'start_timestamps'
p5
(lp6
I1443609991789
aI1443609989804
aI1443609989734
aI1443609996337
aI1443609989383
aI1443609994542
aI1443609986580
asS'stop_timestamps'
p7
(lp8
I1443610190789
aI1443610195804
aI1443610249734
aI1443610191337
aI1443610190383
aI1443610189542
aI1443610186580
asS'stop_offsets'
p9
(lp10
F167789.0
aF172804.0
aF226734.0
aF168337.0
aF167383.0
aF166542.0
aF163580.0
asS'start_offsets'
p11
(lp12
F10211.0
aF12196.0
aF12266.0
aF5663.0
aF12617.0
aF7458.0
aF15420.0
as.