(dp0
S'video_durations'
p1
(lp2
I199000
aI206000
aI207000
aI260000
aI195000
aI201000
aI195000
aI200000
asS'event_recording_durations'
p3
(lp4
F42000.0
aF42000.0
aF42000.0
aF42000.0
aF42000.0
aF42000.0
aF42000.0
aF42000.0
asS'start_timestamps'
p5
(lp6
I1443609991789
aI1443609989804
aI1443609995462
aI1443609989734
aI1443609996337
aI1443609989383
aI1443609994542
aI1443609986580
asS'stop_timestamps'
p7
(lp8
I1443610190789
aI1443610195804
aI1443610202462
aI1443610249734
aI1443610191337
aI1443610190383
aI1443610189542
aI1443610186580
asS'stop_offsets'
p9
(lp10
F7789.0
aF12804.0
aF19462.0
aF66734.0
aF8337.0
aF7383.0
aF6542.0
aF3580.0
asS'start_offsets'
p11
(lp12
F149211.0
aF151196.0
aF145538.0
aF151266.0
aF144663.0
aF151617.0
aF146458.0
aF154420.0
as.