(dp0
S'video_durations'
p1
(lp2
I171000
aF168000.0
aI170000
aI172000
aI171000
aI171000
aI170000
aI170000
aF171000.0
aF158000.0
asS'event_recording_durations'
p3
(lp4
F10000.0
aF10000.0
aF10000.0
aF10000.0
aF10000.0
aF10000.0
aF10000.0
aF10000.0
aF10000.0
aF10000.0
asS'start_timestamps'
p5
(lp6
I1480572869112
aF1480572871450.0
aI1480572869748
aI1480572868377
aI1480572868855
aI1480572869580
aI1480572870133
aI1480572869611
aF1480572867905.0
aF1480572880672.0
asS'stop_timestamps'
p7
(lp8
I1480573040112
aI1480573039450
aI1480573039748
aI1480573040377
aI1480573039855
aI1480573040580
aI1480573040133
aI1480573039611
aI1480573038905
aI1480573038672
asS'stop_offsets'
p9
(lp10
F76112.0
aF75450.0
aF75748.0
aF76377.0
aF75855.0
aF76580.0
aF76133.0
aF75611.0
aF74905.0
aF74672.0
asS'start_offsets'
p11
(lp12
F84888.0
aF82550.0
aF84252.0
aF85623.0
aF85145.0
aF84420.0
aF83867.0
aF84389.0
aF86095.0
aF73328.0
as.