(dp0
S'video_durations'
p1
(lp2
I141000
aI146000
aI138000
aI134000
aI152000
aI147000
aI146000
asS'event_recording_durations'
p3
(lp4
F93000.0
aF93000.0
aF93000.0
aF93000.0
aF93000.0
aF93000.0
aF93000.0
asS'start_timestamps'
p5
(lp6
I1426849765102
aI1426849755528
aI1426849763175
aI1426849777089
aI1426849754895
aI1426849757407
aI1426849761429
asS'stop_timestamps'
p7
(lp8
I1426849906102
aI1426849901528
aI1426849901175
aI1426849911089
aI1426849906895
aI1426849904407
aI1426849907429
asS'stop_offsets'
p9
(lp10
F36102.0
aF31528.0
aF31175.0
aF41089.0
aF36895.0
aF34407.0
aF37429.0
asS'start_offsets'
p11
(lp12
F11898.0
aF21472.0
aF13825.0
aF-89.0
aF22105.0
aF19593.0
aF15571.0
as.