(dp0
S'video_durations'
p1
(lp2
I162000
aI84000
aI171000
aI169000
aI163000
aI165000
asS'event_recording_durations'
p3
(lp4
F83000.0
aF83000.0
aF83000.0
aF83000.0
aF83000.0
aF83000.0
asS'start_timestamps'
p5
(lp6
I1443610376508
aI1443610455012
aI1443610381964
aI1443610377915
aI1443610375885
aI1443610374220
asS'stop_timestamps'
p7
(lp8
I1443610538508
aI1443610539012
aI1443610552964
aI1443610546915
aI1443610538885
aI1443610539220
asS'stop_offsets'
p9
(lp10
F508.0
aF1012.0
aF14964.0
aF8915.0
aF885.0
aF1220.0
asS'start_offsets'
p11
(lp12
F78492.0
aF-12.0
aF73036.0
aF77085.0
aF79115.0
aF80780.0
as.