(dp0
S'video_durations'
p1
(lp2
I173000
aI169000
aF146000.0
aI170000
aI166000
aI165000
aI175000
aI162000
aI167000
aF167000.0
asS'event_recording_durations'
p3
(lp4
F64000.0
aF64000.0
aF64000.0
aF64000.0
aF64000.0
aF64000.0
aF64000.0
aF64000.0
aF64000.0
aF64000.0
asS'start_timestamps'
p5
(lp6
I1480572517341
aI1480572518734
aF1480572540626.0
aI1480572519805
aI1480572524188
aI1480572524208
aI1480572521540
aI1480572527573
aI1480572524796
aF1480572516453.0
asS'stop_timestamps'
p7
(lp8
I1480572690341
aI1480572687734
aI1480572686626
aI1480572689805
aI1480572690188
aI1480572689208
aI1480572696540
aI1480572689573
aI1480572691796
aI1480572683453
asS'stop_offsets'
p9
(lp10
F86341.0
aF83734.0
aF82626.0
aF85805.0
aF86188.0
aF85208.0
aF92540.0
aF85573.0
aF87796.0
aF79453.0
asS'start_offsets'
p11
(lp12
F22659.0
aF21266.0
aF-626.0
aF20195.0
aF15812.0
aF15792.0
aF18460.0
aF12427.0
aF15204.0
aF23547.0
as.