(dp0
S'video_durations'
p1
(lp2
I82000
aI97000
aI96000
aI96000
aI96000
asS'event_recording_durations'
p3
(lp4
F82000.0
aF82000.0
aF82000.0
aF82000.0
aF82000.0
asS'start_timestamps'
p5
(lp6
I1404273904114
aI1404273903648
aI1404273904326
aI1404273903068
aI1404273902346
asS'stop_timestamps'
p7
(lp8
I1404273986114
aI1404274000648
aI1404274000326
aI1404273999068
aI1404273998346
asS'stop_offsets'
p9
(lp10
F-8999886.0
aF-8985352.0
aF-8985674.0
aF-8986932.0
aF-8987654.0
asS'start_offsets'
p11
(lp12
F8999886.0
aF9000352.0
aF8999674.0
aF9000932.0
aF9001654.0
as.