(dp0
S'video_durations'
p1
(lp2
I199000
aI206000
aI207000
aI260000
aI195000
aI201000
aI195000
aI200000
asS'event_recording_durations'
p3
(lp4
F46000.0
aF46000.0
aF46000.0
aF46000.0
aF46000.0
aF46000.0
aF46000.0
aF46000.0
asS'start_timestamps'
p5
(lp6
I1443609991789
aI1443609989804
aI1443609995462
aI1443609989734
aI1443609996337
aI1443609989383
aI1443609994542
aI1443609986580
asS'stop_timestamps'
p7
(lp8
I1443610190789
aI1443610195804
aI1443610202462
aI1443610249734
aI1443610191337
aI1443610190383
aI1443610189542
aI1443610186580
asS'stop_offsets'
p9
(lp10
F88789.0
aF93804.0
aF100462.0
aF147734.0
aF89337.0
aF88383.0
aF87542.0
aF84580.0
asS'start_offsets'
p11
(lp12
F64211.0
aF66196.0
aF60538.0
aF66266.0
aF59663.0
aF66617.0
aF61458.0
aF69420.0
as.