(dp0
S'video_durations'
p1
(lp2
I103000
aI107000
aI101000
aI59000
aI28000
asS'event_recording_durations'
p3
(lp4
F15000.0
aF15000.0
aF15000.0
aF15000.0
aF15000.0
asS'start_timestamps'
p5
(lp6
I1404273610710
aI1404273608920
aI1404273614185
aI1404273612703
aI1404273602370
asS'stop_timestamps'
p7
(lp8
I1404273713710
aI1404273715920
aI1404273715185
aI1404273671703
aI1404273630370
asS'stop_offsets'
p9
(lp10
F-8915290.0
aF-8913080.0
aF-8913815.0
aF-8957297.0
aF-8998630.0
asS'start_offsets'
p11
(lp12
F9003290.0
aF9005080.0
aF8999815.0
aF9001297.0
aF9011630.0
as.