(dp0
S'video_durations'
p1
(lp2
I99000
aI106000
aI93000
aI100000
aI101000
aI102000
aI92000
aI99000
aI103000
aI99000
aI107000
aI103000
aI92000
asS'event_recording_durations'
p3
(lp4
F37000.0
aF37000.0
aF37000.0
aF37000.0
aF37000.0
aF37000.0
aF37000.0
aF37000.0
aF37000.0
aF37000.0
aF37000.0
aF37000.0
aF37000.0
asS'start_timestamps'
p5
(lp6
I1444302317821
aI1444302310747
aI1444302317315
aI1444302316200
aI1444302314923
aI1444302315458
aI1444302329224
aI1444302317056
aI1444302312686
aI1444302316133
aI1444302311764
aI1444302312737
aI1444302324459
asS'stop_timestamps'
p7
(lp8
I1444302416821
aI1444302416747
aI1444302410315
aI1444302416200
aI1444302415923
aI1444302417458
aI1444302421224
aI1444302416056
aI1444302415686
aI1444302415133
aI1444302418764
aI1444302415737
aI1444302416459
asS'stop_offsets'
p9
(lp10
F50821.0
aF50747.0
aF44315.0
aF50200.0
aF49923.0
aF51458.0
aF55224.0
aF50056.0
aF49686.0
aF49133.0
aF52764.0
aF49737.0
aF50459.0
asS'start_offsets'
p11
(lp12
F11179.0
aF18253.0
aF11685.0
aF12800.0
aF14077.0
aF13542.0
aF-224.0
aF11944.0
aF16314.0
aF12867.0
aF17236.0
aF16263.0
aF4541.0
as.