(dp0
S'video_durations'
p1
(lp2
I98000
aI101000
aI103000
aI85000
aI101000
aI105000
aI102000
aI98000
aI105000
aI103000
aI99000
aI102000
aI109000
asS'event_recording_durations'
p3
(lp4
F85000.0
aF85000.0
aF85000.0
aF85000.0
aF85000.0
aF85000.0
aF85000.0
aF85000.0
aF85000.0
aF85000.0
aF85000.0
aF85000.0
aF85000.0
asS'start_timestamps'
p5
(lp6
I1444302009334
aI1444302005285
aI1444302005442
aI1444302018063
aI1444302005783
aI1444302004876
aI1444302008419
aI1444302007688
aI1444302005907
aI1444302008162
aI1444302008296
aI1444302005707
aI1444302003617
asS'stop_timestamps'
p7
(lp8
I1444302107334
aI1444302106285
aI1444302108442
aI1444302103063
aI1444302106783
aI1444302109876
aI1444302110419
aI1444302105688
aI1444302110907
aI1444302111162
aI1444302107296
aI1444302107707
aI1444302112617
asS'stop_offsets'
p9
(lp10
F4334.0
aF3285.0
aF5442.0
aF63.0
aF3783.0
aF6876.0
aF7419.0
aF2688.0
aF7907.0
aF8162.0
aF4296.0
aF4707.0
aF9617.0
asS'start_offsets'
p11
(lp12
F8666.0
aF12715.0
aF12558.0
aF-63.0
aF12217.0
aF13124.0
aF9581.0
aF10312.0
aF12093.0
aF9838.0
aF9704.0
aF12293.0
aF14383.0
as.