(dp0
S'video_durations'
p1
(lp2
I173000
aF173000.0
aI169000
aF146000.0
aI170000
aI166000
aI165000
aI175000
aI162000
aI167000
aF167000.0
asS'event_recording_durations'
p3
(lp4
F41000.0
aF41000.0
aF41000.0
aF41000.0
aF41000.0
aF41000.0
aF41000.0
aF41000.0
aF41000.0
aF41000.0
aF41000.0
asS'start_timestamps'
p5
(lp6
I1480572517341
aF1480572516440.0
aI1480572518734
aF1480572540626.0
aI1480572519805
aI1480572524188
aI1480572524208
aI1480572521540
aI1480572527573
aI1480572524796
aF1480572516453.0
asS'stop_timestamps'
p7
(lp8
I1480572690341
aI1480572689440
aI1480572687734
aI1480572686626
aI1480572689805
aI1480572690188
aI1480572689208
aI1480572696540
aI1480572689573
aI1480572691796
aI1480572683453
asS'stop_offsets'
p9
(lp10
F7341.0
aF6440.0
aF4734.0
aF3626.0
aF6805.0
aF7188.0
aF6208.0
aF13540.0
aF6573.0
aF8796.0
aF453.0
asS'start_offsets'
p11
(lp12
F124659.0
aF125560.0
aF123266.0
aF101374.0
aF122195.0
aF117812.0
aF117792.0
aF120460.0
aF114427.0
aF117204.0
aF125547.0
as.